target datalayout = "e-m:e-p270:32:32-p271:32:32-p272:64:64-i64:64-i128:128-f80:128-n8:16:32:64-S128"
target triple = "x86_64-pc-linux-gnu"

%struct.ZSTD_customMem = type { ptr, ptr, ptr }
%struct.ZSTD_frameParameters = type { i32, i32, i32 }
%struct.ZSTD_compressionParameters = type { i32, i32, i32, i32, i32, i32, i32 }
%struct.ZSTD_CCtx_s = type { i32, i32, i32, %struct.ZSTD_CCtx_params_s, %struct.ZSTD_CCtx_params_s, %struct.ZSTD_CCtx_params_s, i32, i64, %struct.ZSTD_cwksp, i64, i64, i64, i64, %struct.XXH64_state_s, %struct.ZSTD_customMem, ptr, i64, %struct.SeqCollector, i32, i32, %struct.seqStore_t, %struct.ldmState_t, ptr, i64, %struct.rawSeqStore_t, %struct.ZSTD_blockState_t, ptr, i32, ptr, i64, i64, i64, i64, ptr, i64, i64, i64, i32, i32, %struct.ZSTD_inBuffer_s, i64, i64, %struct.ZSTD_localDict, ptr, %struct.ZSTD_prefixDict_s, i64, %struct.ZSTD_blockSplitCtx, %struct.ZSTD_externalMatchCtx }
%struct.ZSTD_CCtx_params_s = type { i32, %struct.ZSTD_compressionParameters, %struct.ZSTD_frameParameters, i32, i32, i64, i32, i32, i32, i32, i64, i32, i32, %struct.ldmParams_t, i32, i32, i32, i32, i32, i32, i32, i32, %struct.ZSTD_customMem, i32, i32, i32, i64, i32 }
%struct.ldmParams_t = type { i32, i32, i32, i32, i32, i32 }
%struct.ZSTD_cwksp = type { ptr, ptr, ptr, ptr, ptr, ptr, ptr, i8, i32, i32, i32 }
%struct.XXH64_state_s = type { i64, [4 x i64], [4 x i64], i32, i32, i64 }
%struct.SeqCollector = type { i32, ptr, i64, i64 }
%struct.seqStore_t = type { ptr, ptr, ptr, ptr, ptr, ptr, ptr, i64, i64, i32, i32 }
%struct.ldmState_t = type { %struct.ZSTD_window_t, ptr, i32, ptr, [64 x i64], [64 x %struct.ldmMatchCandidate_t] }
%struct.ZSTD_window_t = type { ptr, ptr, ptr, i32, i32, i32 }
%struct.ldmMatchCandidate_t = type { ptr, i32, i32, ptr }
%struct.rawSeqStore_t = type { ptr, i64, i64, i64, i64 }
%struct.ZSTD_blockState_t = type { ptr, ptr, %struct.ZSTD_matchState_t }
%struct.ZSTD_matchState_t = type { %struct.ZSTD_window_t, i32, i32, i32, i32, ptr, [8 x i32], i64, i32, ptr, ptr, ptr, i32, i32, %struct.optState_t, ptr, %struct.ZSTD_compressionParameters, ptr, i32, i32 }
%struct.optState_t = type { ptr, ptr, ptr, ptr, ptr, ptr, i32, i32, i32, i32, i32, i32, i32, i32, i32, ptr, i32 }
%struct.ZSTD_inBuffer_s = type { ptr, i64, i64 }
%struct.ZSTD_localDict = type { ptr, ptr, i64, i32, ptr }
%struct.ZSTD_prefixDict_s = type { ptr, i64, i32 }
%struct.ZSTD_blockSplitCtx = type { %struct.seqStore_t, %struct.seqStore_t, %struct.seqStore_t, %struct.seqStore_t, %struct.seqStore_t, [196 x i32], %struct.ZSTD_entropyCTablesMetadata_t }
%struct.ZSTD_entropyCTablesMetadata_t = type { %struct.ZSTD_hufCTablesMetadata_t, %struct.ZSTD_fseCTablesMetadata_t }
%struct.ZSTD_hufCTablesMetadata_t = type { i32, [128 x i8], i64 }
%struct.ZSTD_fseCTablesMetadata_t = type { i32, i32, i32, [133 x i8], i64, i64 }
%struct.ZSTD_externalMatchCtx = type { ptr, ptr, ptr, i64 }
%struct.seqStoreSplits = type { ptr, i64 }

; Function Attrs: nounwind uwtable
define internal i32 @ERR_isError(i64 noundef %0) #0 {
  %2 = alloca i64, align 8
  store i64 %0, ptr %2, align 8
  %3 = load i64, ptr %2, align 8
  %4 = icmp ugt i64 %3, -120
  %5 = zext i1 %4 to i32
  ret i32 %5
}

; Function Attrs: nounwind uwtable
define internal void @ZSTD_deriveBlockSplitsHelper(ptr noundef %0, i64 noundef %1, i64 noundef %2, ptr noundef %3, ptr noundef %4) #0 {
  %6 = alloca ptr, align 8
  %7 = alloca i64, align 8
  %8 = alloca i64, align 8
  %9 = alloca ptr, align 8
  %10 = alloca ptr, align 8
  %11 = alloca ptr, align 8
  %12 = alloca ptr, align 8
  %13 = alloca ptr, align 8
  %14 = alloca i64, align 8
  %15 = alloca i64, align 8
  %16 = alloca i64, align 8
  %17 = alloca i64, align 8
  store ptr %0, ptr %6, align 8
  store i64 %1, ptr %7, align 8
  store i64 %2, ptr %8, align 8
  store ptr %3, ptr %9, align 8
  store ptr %4, ptr %10, align 8
  %18 = load ptr, ptr %9, align 8
  %19 = getelementptr inbounds %struct.ZSTD_CCtx_s, ptr %18, i32 0, i32 46
  %20 = getelementptr inbounds %struct.ZSTD_blockSplitCtx, ptr %19, i32 0, i32 0
  store ptr %20, ptr %11, align 8
  %21 = load ptr, ptr %9, align 8
  %22 = getelementptr inbounds %struct.ZSTD_CCtx_s, ptr %21, i32 0, i32 46
  %23 = getelementptr inbounds %struct.ZSTD_blockSplitCtx, ptr %22, i32 0, i32 1
  store ptr %23, ptr %12, align 8
  %24 = load ptr, ptr %9, align 8
  %25 = getelementptr inbounds %struct.ZSTD_CCtx_s, ptr %24, i32 0, i32 46
  %26 = getelementptr inbounds %struct.ZSTD_blockSplitCtx, ptr %25, i32 0, i32 2
  store ptr %26, ptr %13, align 8
  %27 = load i64, ptr %7, align 8
  %28 = load i64, ptr %8, align 8
  %29 = add i64 %27, %28
  %30 = udiv i64 %29, 2
  store i64 %30, ptr %17, align 8
  %31 = load i64, ptr %8, align 8
  %32 = load i64, ptr %7, align 8
  %33 = sub i64 %31, %32
  %34 = icmp ult i64 %33, 300
  br i1 %34, label %40, label %35

35:                                               ; preds = %5
  %36 = load ptr, ptr %6, align 8
  %37 = getelementptr inbounds %struct.seqStoreSplits, ptr %36, i32 0, i32 1
  %38 = load i64, ptr %37, align 8
  %39 = icmp uge i64 %38, 196
  br i1 %39, label %40, label %41

40:                                               ; preds = %35, %5
  br label %105

41:                                               ; preds = %35
  %42 = load ptr, ptr %11, align 8
  %43 = load ptr, ptr %10, align 8
  %44 = load i64, ptr %7, align 8
  %45 = load i64, ptr %8, align 8
  call void @ZSTD_deriveSeqStoreChunk(ptr noundef %42, ptr noundef %43, i64 noundef %44, i64 noundef %45)
  %46 = load ptr, ptr %12, align 8
  %47 = load ptr, ptr %10, align 8
  %48 = load i64, ptr %7, align 8
  %49 = load i64, ptr %17, align 8
  call void @ZSTD_deriveSeqStoreChunk(ptr noundef %46, ptr noundef %47, i64 noundef %48, i64 noundef %49)
  %50 = load ptr, ptr %13, align 8
  %51 = load ptr, ptr %10, align 8
  %52 = load i64, ptr %17, align 8
  %53 = load i64, ptr %8, align 8
  call void @ZSTD_deriveSeqStoreChunk(ptr noundef %50, ptr noundef %51, i64 noundef %52, i64 noundef %53)
  %54 = load ptr, ptr %11, align 8
  %55 = load ptr, ptr %9, align 8
  %56 = call i64 @ZSTD_buildEntropyStatisticsAndEstimateSubBlockSize(ptr noundef %54, ptr noundef %55)
  store i64 %56, ptr %14, align 8
  %57 = load ptr, ptr %12, align 8
  %58 = load ptr, ptr %9, align 8
  %59 = call i64 @ZSTD_buildEntropyStatisticsAndEstimateSubBlockSize(ptr noundef %57, ptr noundef %58)
  store i64 %59, ptr %15, align 8
  %60 = load ptr, ptr %13, align 8
  %61 = load ptr, ptr %9, align 8
  %62 = call i64 @ZSTD_buildEntropyStatisticsAndEstimateSubBlockSize(ptr noundef %60, ptr noundef %61)
  store i64 %62, ptr %16, align 8
  %63 = load i64, ptr %14, align 8
  %64 = call i32 @ERR_isError(i64 noundef %63)
  %65 = icmp ne i32 %64, 0
  br i1 %65, label %74, label %66

66:                                               ; preds = %41
  %67 = load i64, ptr %15, align 8
  %68 = call i32 @ERR_isError(i64 noundef %67)
  %69 = icmp ne i32 %68, 0
  br i1 %69, label %74, label %70

70:                                               ; preds = %66
  %71 = load i64, ptr %16, align 8
  %72 = call i32 @ERR_isError(i64 noundef %71)
  %73 = icmp ne i32 %72, 0
  br i1 %73, label %74, label %75

74:                                               ; preds = %70, %66, %41
  br label %105

75:                                               ; preds = %70
  %76 = load i64, ptr %15, align 8
  %77 = load i64, ptr %16, align 8
  %78 = add i64 %76, %77
  %79 = load i64, ptr %14, align 8
  %80 = icmp ult i64 %78, %79
  br i1 %80, label %81, label %105

81:                                               ; preds = %75
  %82 = load ptr, ptr %6, align 8
  %83 = load i64, ptr %7, align 8
  %84 = load i64, ptr %17, align 8
  %85 = load ptr, ptr %9, align 8
  %86 = load ptr, ptr %10, align 8
  call void @ZSTD_deriveBlockSplitsHelper(ptr noundef %82, i64 noundef %83, i64 noundef %84, ptr noundef %85, ptr noundef %86)
  %87 = load i64, ptr %17, align 8
  %88 = trunc i64 %87 to i32
  %89 = load ptr, ptr %6, align 8
  %90 = getelementptr inbounds %struct.seqStoreSplits, ptr %89, i32 0, i32 0
  %91 = load ptr, ptr %90, align 8
  %92 = load ptr, ptr %6, align 8
  %93 = getelementptr inbounds %struct.seqStoreSplits, ptr %92, i32 0, i32 1
  %94 = load i64, ptr %93, align 8
  %95 = getelementptr inbounds i32, ptr %91, i64 %94
  store i32 %88, ptr %95, align 4
  %96 = load ptr, ptr %6, align 8
  %97 = getelementptr inbounds %struct.seqStoreSplits, ptr %96, i32 0, i32 1
  %98 = load i64, ptr %97, align 8
  %99 = add i64 %98, 1
  store i64 %99, ptr %97, align 8
  %100 = load ptr, ptr %6, align 8
  %101 = load i64, ptr %17, align 8
  %102 = load i64, ptr %8, align 8
  %103 = load ptr, ptr %9, align 8
  %104 = load ptr, ptr %10, align 8
  call void @ZSTD_deriveBlockSplitsHelper(ptr noundef %100, i64 noundef %101, i64 noundef %102, ptr noundef %103, ptr noundef %104)
  br label %105

105:                                              ; preds = %81, %75, %74, %40
  ret void
}