; Function Attrs: nounwind uwtable
define internal fastcc void @ZSTD_deriveBlockSplitsHelper(ptr noundef nonnull captures(none) %0, i64 noundef %1, i64 noundef range(i64 0, -9223372036854775808) %2, ptr noundef %3, ptr noundef readonly captures(none) %4) unnamed_addr #1 {
  %6 = getelementptr inbounds nuw i8, ptr %0, i64 8
  %7 = getelementptr inbounds nuw i8, ptr %3, i64 3712
  %8 = getelementptr inbounds nuw i8, ptr %3, i64 3792
  %9 = getelementptr inbounds nuw i8, ptr %3, i64 3872
  %10 = sub i64 %2, %1
  %11 = icmp ult i64 %10, 300
  br i1 %11, label %._crit_edge, label %.lr.ph.preheader

.lr.ph.preheader:                                 ; preds = %5
  %.pre = load i64, ptr %6, align 8
  br label %.lr.ph

.lr.ph:                                           ; preds = %.lr.ph.preheader, %tailrecurse
  %12 = phi i64 [ %30, %tailrecurse ], [ %.pre, %.lr.ph.preheader ]
  %.tr4853 = phi i64 [ %13, %tailrecurse ], [ %1, %.lr.ph.preheader ]
  %.in = add i64 %.tr4853, %2
  %13 = lshr i64 %.in, 1
  %14 = icmp ugt i64 %12, 195
  br i1 %14, label %._crit_edge, label %15

15:                                               ; preds = %.lr.ph
  tail call fastcc void @ZSTD_deriveSeqStoreChunk(ptr noundef nonnull %7, ptr noundef %4, i64 noundef %.tr4853, i64 noundef %2)
  tail call fastcc void @ZSTD_deriveSeqStoreChunk(ptr noundef nonnull %8, ptr noundef %4, i64 noundef %.tr4853, i64 noundef %13)
  tail call fastcc void @ZSTD_deriveSeqStoreChunk(ptr noundef nonnull %9, ptr noundef %4, i64 noundef %13, i64 noundef %2)
  %16 = tail call fastcc i64 @ZSTD_buildEntropyStatisticsAndEstimateSubBlockSize(ptr noundef nonnull %7, ptr noundef %3)
  %17 = tail call fastcc i64 @ZSTD_buildEntropyStatisticsAndEstimateSubBlockSize(ptr noundef nonnull %8, ptr noundef %3)
  %18 = tail call fastcc i64 @ZSTD_buildEntropyStatisticsAndEstimateSubBlockSize(ptr noundef nonnull %9, ptr noundef %3)
  %19 = icmp ult i64 %16, -119
  %20 = icmp ult i64 %17, -119
  %or.cond52 = select i1 %19, i1 %20, i1 false
  br i1 %or.cond52, label %21, label %._crit_edge

21:                                               ; preds = %15
  %22 = icmp ult i64 %18, -119
  %23 = add i64 %18, %17
  %24 = icmp ult i64 %23, %16
  %or.cond = select i1 %22, i1 %24, i1 false
  br i1 %or.cond, label %tailrecurse, label %._crit_edge

tailrecurse:                                      ; preds = %21
  tail call fastcc void @ZSTD_deriveBlockSplitsHelper(ptr noundef %0, i64 noundef %.tr4853, i64 noundef %13, ptr noundef nonnull %3, ptr noundef %4)
  %25 = trunc i64 %13 to i32
  %26 = load ptr, ptr %0, align 8
  %27 = load i64, ptr %6, align 8
  %28 = getelementptr inbounds i32, ptr %26, i64 %27
  store i32 %25, ptr %28, align 4
  %29 = load i64, ptr %6, align 8
  %30 = add i64 %29, 1
  store i64 %30, ptr %6, align 8
  %31 = sub nsw i64 %2, %13
  %32 = icmp ult i64 %31, 300
  br i1 %32, label %._crit_edge, label %.lr.ph

._crit_edge:                                      ; preds = %.lr.ph, %tailrecurse, %21, %15, %5
  ret void
}